Certificate Request:
    Data:
        Version: 0 (0x0)
        Subject: C=SJ, ST=San Jose, L=San Jose, O=Bosz Digital, OU=Media, CN=Diego Barahona/emailAddress=diego.barahona@boszdigital.com
        Subject Public Key Info:
            Public Key Algorithm: rsaEncryption
            RSA Public Key: (2048 bit)
                Modulus (2048 bit):
                    00:b5:bc:f1:7b:42:e5:fe:5f:c8:8c:bc:4d:6d:a8:
                    14:20:56:0a:48:c4:64:72:d9:26:20:c7:5f:59:ef:
                    ff:a2:95:33:4e:32:f2:db:f0:e2:1b:4e:0a:9a:47:
                    81:12:ad:a8:d7:29:94:c5:86:46:5b:d0:61:14:17:
                    13:e5:b6:a8:e2:4d:d9:72:1a:30:d2:58:de:5e:1e:
                    dc:07:24:54:72:68:ea:99:11:d4:ed:89:01:f2:5b:
                    e8:0e:08:96:e3:db:f9:fb:a4:a2:57:c9:41:c5:45:
                    db:08:ba:6c:d0:8c:c9:01:85:91:04:57:fe:72:ee:
                    72:1e:f9:aa:03:b1:bc:54:49:eb:90:ed:67:22:95:
                    b7:48:02:32:36:6b:43:10:d5:9d:a1:1a:b5:d2:53:
                    14:9a:c5:35:44:45:5f:47:fd:5c:91:f2:d6:e4:94:
                    bb:90:12:2f:d6:20:2f:77:c9:43:70:98:3f:c2:ca:
                    b6:dc:6a:39:af:ff:cb:0c:03:fc:60:da:a2:c9:c6:
                    6c:56:01:66:37:4c:32:23:29:07:c4:6a:91:db:ce:
                    73:07:26:f2:44:3e:5a:ab:21:fc:0f:6f:fa:47:21:
                    3c:b2:1e:97:65:07:bc:2a:a6:b4:ee:5e:9d:81:e2:
                    7f:d6:db:38:ff:ad:70:99:f4:a7:64:aa:8b:1e:b2:
                    3a:db
                Exponent: 65537 (0x10001)
        Attributes:
            a0:00
    Signature Algorithm: sha1WithRSAEncryption
        8e:b2:45:39:48:c5:09:af:05:9a:6d:57:b5:80:4c:1a:bc:48:
        45:b3:3b:87:3d:f2:48:a1:08:46:72:fa:55:ed:4c:f1:a1:96:
        ed:e0:14:84:54:75:6f:af:24:1b:b5:17:d5:e1:c9:ba:69:1d:
        73:4d:b6:8c:47:af:95:01:d5:b4:0e:6c:0c:b5:bd:98:66:bf:
        f6:ac:6e:7a:31:36:43:93:19:6d:b1:4d:81:2f:97:0f:01:b0:
        c4:31:81:b8:92:d2:94:3c:bb:98:6e:11:35:ab:8b:db:c0:88:
        bf:12:5b:aa:11:d5:af:2b:9b:32:5e:4b:06:7d:aa:6d:57:54:
        fb:3c:f3:86:50:3d:60:c6:53:db:bf:35:27:58:cd:7c:1f:e7:
        2e:c1:ee:9b:f4:45:22:e3:38:83:ac:04:db:d3:5c:0c:42:ae:
        ca:0b:9c:e5:98:72:e2:e5:26:9d:11:94:e9:18:48:8c:ea:5b:
        a1:ea:dd:78:fe:d2:71:a1:2d:4b:cb:7a:80:73:12:ce:b0:b2:
        42:f3:e0:4a:6a:68:c5:7e:4b:5a:ef:51:7c:8a:78:95:ab:6b:
        de:52:f3:e0:23:1f:b9:8b:78:21:b0:58:df:0e:70:f2:bc:9a:
        24:9e:b2:79:fe:a7:24:83:45:95:6c:70:d1:a8:f5:1b:24:d1:
        7c:31:0d:cd
-----BEGIN CERTIFICATE REQUEST-----
MIIC6DCCAdACAQAwgaIxCzAJBgNVBAYTAlNKMREwDwYDVQQIDAhTYW4gSm9zZTER
MA8GA1UEBwwIU2FuIEpvc2UxFTATBgNVBAoMDEJvc3ogRGlnaXRhbDEOMAwGA1UE
CwwFTWVkaWExFzAVBgNVBAMMDkRpZWdvIEJhcmFob25hMS0wKwYJKoZIhvcNAQkB
Fh5kaWVnby5iYXJhaG9uYUBib3N6ZGlnaXRhbC5jb20wggEiMA0GCSqGSIb3DQEB
AQUAA4IBDwAwggEKAoIBAQC1vPF7QuX+X8iMvE1tqBQgVgpIxGRy2SYgx19Z7/+i
lTNOMvLb8OIbTgqaR4ESrajXKZTFhkZb0GEUFxPltqjiTdlyGjDSWN5eHtwHJFRy
aOqZEdTtiQHyW+gOCJbj2/n7pKJXyUHFRdsIumzQjMkBhZEEV/5y7nIe+aoDsbxU
SeuQ7WcilbdIAjI2a0MQ1Z2hGrXSUxSaxTVERV9H/VyR8tbklLuQEi/WIC93yUNw
mD/Cyrbcajmv/8sMA/xg2qLJxmxWAWY3TDIjKQfEapHbznMHJvJEPlqrIfwPb/pH
ITyyHpdlB7wqprTuXp2B4n/W2zj/rXCZ9KdkqosesjrbAgMBAAGgADANBgkqhkiG
9w0BAQUFAAOCAQEAjrJFOUjFCa8Fmm1XtYBMGrxIRbM7hz3ySKEIRnL6Ve1M8aGW
7eAUhFR1b68kG7UX1eHJumkdc022jEevlQHVtA5sDLW9mGa/9qxuejE2Q5MZbbFN
gS+XDwGwxDGBuJLSlDy7mG4RNauL28CIvxJbqhHVryubMl5LBn2qbVdU+zzzhlA9
YMZT2781J1jNfB/nLsHum/RFIuM4g6wE29NcDEKuyguc5Zhy4uUmnRGU6RhIjOpb
oerdeP7ScaEtS8t6gHMSzrCyQvPgSmpoxX5LWu9RfIp4latr3lLz4CMfuYt4IbBY
3w5w8ryaJJ6yef6nJINFlWxw0aj1GyTRfDENzQ==
-----END CERTIFICATE REQUEST-----
